target datalayout = "e-m:e-p270:32:32-p271:32:32-p272:64:64-i64:64-i128:128-f80:128-n8:16:32:64-S128"
target triple = "x86_64-pc-linux-gnu"

%struct.ident_t = type { i32, i32, i32, i32, ptr }
%"struct.faiss::ClusteringParameters" = type { i32, i32, i8, i8, i8, i8, i8, i32, i32, i32, i64 }
%"class.std::vector" = type { %"struct.std::_Vector_base" }
%"struct.std::_Vector_base" = type { %"struct.std::_Vector_base<float, std::allocator<float>>::_Vector_impl" }
%"struct.std::_Vector_base<float, std::allocator<float>>::_Vector_impl" = type { %"struct.std::_Vector_base<float, std::allocator<float>>::_Vector_impl_data" }
%"struct.std::_Vector_base<float, std::allocator<float>>::_Vector_impl_data" = type { ptr, ptr, ptr }
%"struct.faiss::ProductQuantizer" = type { %"struct.faiss::Quantizer", i64, i64, i64, i64, i8, i32, %"struct.faiss::ClusteringParameters", ptr, %"class.std::vector", %"class.std::vector", %"class.std::vector", %"class.std::vector" }
%"struct.faiss::Quantizer" = type { ptr, i64, i64 }
%"class.std::__cxx11::basic_string" = type { %"struct.std::__cxx11::basic_string<char>::_Alloc_hider", i64, %union.anon }
%"struct.std::__cxx11::basic_string<char>::_Alloc_hider" = type { ptr }
%union.anon = type { i64, [8 x i8] }
%"struct.faiss::HeapArray" = type { i64, i64, ptr, ptr }

@.str.2 = private unnamed_addr constant [121 x i8] c"generated/home/dtcxzyw/WorkSpace/Projects/compilers/llvm-opt-benchmark/bench/faiss/faiss/faiss/impl/ProductQuantizer.cpp\00", align 1
@_ZTIN5faiss14FaissExceptionE = external constant ptr
@2 = private unnamed_addr constant %struct.ident_t { i32 0, i32 2, i32 0, i32 22, ptr @0 }, align 8
@.str.8 = private unnamed_addr constant [19 x i8] c"Error: '%s' failed\00", align 1
@.str.15 = private unnamed_addr constant [36 x i8] c"sdc_table.size() == M * ksub * ksub\00", align 1
@__PRETTY_FUNCTION__._ZNK5faiss16ProductQuantizer10search_sdcEPKhmS2_mPNS_9HeapArrayINS_4CMaxIflEEEEb = private unnamed_addr constant [134 x i8] c"void faiss::ProductQuantizer::search_sdc(const uint8_t *, size_t, const uint8_t *, const size_t, float_maxheap_array_t *, bool) const\00", align 1
@.str.16 = private unnamed_addr constant [11 x i8] c"nbits == 8\00", align 1

; Function Attrs: mustprogress nounwind uwtable
define linkonce_odr noundef i64 @_ZNKSt6vectorIfSaIfEE4sizeEv(ptr noundef nonnull align 8 dereferenceable(24) %0) #1 comdat align 2 {
  %2 = alloca ptr, align 8
  store ptr %0, ptr %2, align 8
  %3 = load ptr, ptr %2, align 8
  %4 = getelementptr inbounds %"struct.std::_Vector_base", ptr %3, i32 0, i32 0
  %5 = getelementptr inbounds %"struct.std::_Vector_base<float, std::allocator<float>>::_Vector_impl_data", ptr %4, i32 0, i32 1
  %6 = load ptr, ptr %5, align 8
  %7 = getelementptr inbounds %"struct.std::_Vector_base", ptr %3, i32 0, i32 0
  %8 = getelementptr inbounds %"struct.std::_Vector_base<float, std::allocator<float>>::_Vector_impl_data", ptr %7, i32 0, i32 0
  %9 = load ptr, ptr %8, align 8
  %10 = ptrtoint ptr %6 to i64
  %11 = ptrtoint ptr %9 to i64
  %12 = sub i64 %10, %11
  %13 = sdiv exact i64 %12, 4
  ret i64 %13
}

; Function Attrs: mustprogress uwtable
define void @_ZNK5faiss16ProductQuantizer10search_sdcEPKhmS2_mPNS_9HeapArrayINS_4CMaxIflEEEEb(ptr noundef nonnull align 8 dereferenceable(208) %0, ptr noundef %1, i64 noundef %2, ptr noundef %3, i64 noundef %4, ptr noundef %5, i1 noundef zeroext %6) #0 align 2 personality ptr @__gxx_personality_v0 {
  %8 = alloca ptr, align 8
  %9 = alloca ptr, align 8
  %10 = alloca i64, align 8
  %11 = alloca ptr, align 8
  %12 = alloca i64, align 8
  %13 = alloca ptr, align 8
  %14 = alloca i8, align 1
  %15 = alloca %"class.std::__cxx11::basic_string", align 8
  %16 = alloca i32, align 4
  %17 = alloca ptr, align 8
  %18 = alloca i32, align 4
  %19 = alloca %"class.std::__cxx11::basic_string", align 8
  %20 = alloca i32, align 4
  %21 = alloca i64, align 8
  store ptr %0, ptr %8, align 8
  store ptr %1, ptr %9, align 8
  store i64 %2, ptr %10, align 8
  store ptr %3, ptr %11, align 8
  store i64 %4, ptr %12, align 8
  store ptr %5, ptr %13, align 8
  %22 = zext i1 %6 to i8
  store i8 %22, ptr %14, align 1
  %23 = load ptr, ptr %8, align 8
  br label %24

24:                                               ; preds = %7
  %25 = getelementptr inbounds %"struct.faiss::ProductQuantizer", ptr %23, i32 0, i32 12
  %26 = call noundef i64 @_ZNKSt6vectorIfSaIfEE4sizeEv(ptr noundef nonnull align 8 dereferenceable(24) %25) #12
  %27 = getelementptr inbounds %"struct.faiss::ProductQuantizer", ptr %23, i32 0, i32 1
  %28 = load i64, ptr %27, align 8
  %29 = getelementptr inbounds %"struct.faiss::ProductQuantizer", ptr %23, i32 0, i32 4
  %30 = load i64, ptr %29, align 8
  %31 = mul i64 %28, %30
  %32 = getelementptr inbounds %"struct.faiss::ProductQuantizer", ptr %23, i32 0, i32 4
  %33 = load i64, ptr %32, align 8
  %34 = mul i64 %31, %33
  %35 = icmp eq i64 %26, %34
  br i1 %35, label %59, label %36

36:                                               ; preds = %24
  br label %37

37:                                               ; preds = %36
  call void @_ZNSt7__cxx1112basic_stringIcSt11char_traitsIcESaIcEEC1Ev(ptr noundef nonnull align 8 dereferenceable(32) %15) #12
  %38 = call i32 (ptr, i64, ptr, ...) @snprintf(ptr noundef null, i64 noundef 0, ptr noundef @.str.8, ptr noundef @.str.15) #12
  store i32 %38, ptr %16, align 4
  %39 = load i32, ptr %16, align 4
  %40 = add nsw i32 %39, 1
  %41 = sext i32 %40 to i64
  invoke void @_ZNSt7__cxx1112basic_stringIcSt11char_traitsIcESaIcEE6resizeEm(ptr noundef nonnull align 8 dereferenceable(32) %15, i64 noundef %41)
          to label %42 unwind label %49

42:                                               ; preds = %37
  %43 = invoke noundef nonnull align 1 dereferenceable(1) ptr @_ZNSt7__cxx1112basic_stringIcSt11char_traitsIcESaIcEEixEm(ptr noundef nonnull align 8 dereferenceable(32) %15, i64 noundef 0)
          to label %44 unwind label %49

44:                                               ; preds = %42
  %45 = call noundef i64 @_ZNKSt7__cxx1112basic_stringIcSt11char_traitsIcESaIcEE4sizeEv(ptr noundef nonnull align 8 dereferenceable(32) %15) #12
  %46 = call i32 (ptr, i64, ptr, ...) @snprintf(ptr noundef %43, i64 noundef %45, ptr noundef @.str.8, ptr noundef @.str.15) #12
  %47 = call ptr @__cxa_allocate_exception(i64 40) #12
  invoke void @_ZN5faiss14FaissExceptionC1ERKNSt7__cxx1112basic_stringIcSt11char_traitsIcESaIcEEEPKcSA_i(ptr noundef nonnull align 8 dereferenceable(40) %47, ptr noundef nonnull align 8 dereferenceable(32) %15, ptr noundef @__PRETTY_FUNCTION__._ZNK5faiss16ProductQuantizer10search_sdcEPKhmS2_mPNS_9HeapArrayINS_4CMaxIflEEEEb, ptr noundef @.str.2, i32 noundef 818)
          to label %48 unwind label %53

48:                                               ; preds = %44
  invoke void @__cxa_throw(ptr %47, ptr @_ZTIN5faiss14FaissExceptionE, ptr @_ZN5faiss14FaissExceptionD2Ev) #15
          to label %98 unwind label %49

49:                                               ; preds = %48, %42, %37
  %50 = landingpad { ptr, i32 }
          cleanup
  %51 = extractvalue { ptr, i32 } %50, 0
  store ptr %51, ptr %17, align 8
  %52 = extractvalue { ptr, i32 } %50, 1
  store i32 %52, ptr %18, align 4
  br label %57

53:                                               ; preds = %44
  %54 = landingpad { ptr, i32 }
          cleanup
  %55 = extractvalue { ptr, i32 } %54, 0
  store ptr %55, ptr %17, align 8
  %56 = extractvalue { ptr, i32 } %54, 1
  store i32 %56, ptr %18, align 4
  call void @__cxa_free_exception(ptr %47) #12
  br label %57

57:                                               ; preds = %53, %49
  call void @_ZNSt7__cxx1112basic_stringIcSt11char_traitsIcESaIcEED1Ev(ptr noundef nonnull align 8 dereferenceable(32) %15) #12
  br label %93

58:                                               ; No predecessors!
  br label %59

59:                                               ; preds = %58, %24
  br label %60

60:                                               ; preds = %59
  br label %61

61:                                               ; preds = %60
  %62 = getelementptr inbounds %"struct.faiss::ProductQuantizer", ptr %23, i32 0, i32 2
  %63 = load i64, ptr %62, align 8
  %64 = icmp eq i64 %63, 8
  br i1 %64, label %88, label %65

65:                                               ; preds = %61
  br label %66

66:                                               ; preds = %65
  call void @_ZNSt7__cxx1112basic_stringIcSt11char_traitsIcESaIcEEC1Ev(ptr noundef nonnull align 8 dereferenceable(32) %19) #12
  %67 = call i32 (ptr, i64, ptr, ...) @snprintf(ptr noundef null, i64 noundef 0, ptr noundef @.str.8, ptr noundef @.str.16) #12
  store i32 %67, ptr %20, align 4
  %68 = load i32, ptr %20, align 4
  %69 = add nsw i32 %68, 1
  %70 = sext i32 %69 to i64
  invoke void @_ZNSt7__cxx1112basic_stringIcSt11char_traitsIcESaIcEE6resizeEm(ptr noundef nonnull align 8 dereferenceable(32) %19, i64 noundef %70)
          to label %71 unwind label %78

71:                                               ; preds = %66
  %72 = invoke noundef nonnull align 1 dereferenceable(1) ptr @_ZNSt7__cxx1112basic_stringIcSt11char_traitsIcESaIcEEixEm(ptr noundef nonnull align 8 dereferenceable(32) %19, i64 noundef 0)
          to label %73 unwind label %78

73:                                               ; preds = %71
  %74 = call noundef i64 @_ZNKSt7__cxx1112basic_stringIcSt11char_traitsIcESaIcEE4sizeEv(ptr noundef nonnull align 8 dereferenceable(32) %19) #12
  %75 = call i32 (ptr, i64, ptr, ...) @snprintf(ptr noundef %72, i64 noundef %74, ptr noundef @.str.8, ptr noundef @.str.16) #12
  %76 = call ptr @__cxa_allocate_exception(i64 40) #12
  invoke void @_ZN5faiss14FaissExceptionC1ERKNSt7__cxx1112basic_stringIcSt11char_traitsIcESaIcEEEPKcSA_i(ptr noundef nonnull align 8 dereferenceable(40) %76, ptr noundef nonnull align 8 dereferenceable(32) %19, ptr noundef @__PRETTY_FUNCTION__._ZNK5faiss16ProductQuantizer10search_sdcEPKhmS2_mPNS_9HeapArrayINS_4CMaxIflEEEEb, ptr noundef @.str.2, i32 noundef 819)
          to label %77 unwind label %82

77:                                               ; preds = %73
  invoke void @__cxa_throw(ptr %76, ptr @_ZTIN5faiss14FaissExceptionE, ptr @_ZN5faiss14FaissExceptionD2Ev) #15
          to label %98 unwind label %78

78:                                               ; preds = %77, %71, %66
  %79 = landingpad { ptr, i32 }
          cleanup
  %80 = extractvalue { ptr, i32 } %79, 0
  store ptr %80, ptr %17, align 8
  %81 = extractvalue { ptr, i32 } %79, 1
  store i32 %81, ptr %18, align 4
  br label %86

82:                                               ; preds = %73
  %83 = landingpad { ptr, i32 }
          cleanup
  %84 = extractvalue { ptr, i32 } %83, 0
  store ptr %84, ptr %17, align 8
  %85 = extractvalue { ptr, i32 } %83, 1
  store i32 %85, ptr %18, align 4
  call void @__cxa_free_exception(ptr %76) #12
  br label %86

86:                                               ; preds = %82, %78
  call void @_ZNSt7__cxx1112basic_stringIcSt11char_traitsIcESaIcEED1Ev(ptr noundef nonnull align 8 dereferenceable(32) %19) #12
  br label %93

87:                                               ; No predecessors!
  br label %88

88:                                               ; preds = %87, %61
  br label %89

89:                                               ; preds = %88
  %90 = load ptr, ptr %13, align 8
  %91 = getelementptr inbounds %"struct.faiss::HeapArray", ptr %90, i32 0, i32 1
  %92 = load i64, ptr %91, align 8
  store i64 %92, ptr %21, align 8
  call void (ptr, i32, ptr, ...) @__kmpc_fork_call(ptr @2, i32 8, ptr @_ZNK5faiss16ProductQuantizer10search_sdcEPKhmS2_mPNS_9HeapArrayINS_4CMaxIflEEEEb.omp_outlined, ptr %10, ptr %13, ptr %21, ptr %9, ptr %23, ptr %14, ptr %11, ptr %12)
  ret void

93:                                               ; preds = %86, %57
  %94 = load ptr, ptr %17, align 8
  %95 = load i32, ptr %18, align 4
  %96 = insertvalue { ptr, i32 } poison, ptr %94, 0
  %97 = insertvalue { ptr, i32 } %96, i32 %95, 1
  resume { ptr, i32 } %97

98:                                               ; preds = %77, %48
  unreachable
}