; Function Attrs: mustprogress uwtable
define void @_ZNK5faiss16ProductQuantizer10search_sdcEPKhmS2_mPNS_9HeapArrayINS_4CMaxIflEEEEb(ptr noundef nonnull align 8 dereferenceable(208) %0, ptr noundef %1, i64 noundef %2, ptr noundef %3, i64 noundef %4, ptr noundef %5, i1 noundef zeroext %6) local_unnamed_addr #0 align 2 personality ptr @__gxx_personality_v0 {
  %8 = alloca ptr, align 8
  %9 = alloca i64, align 8
  %10 = alloca ptr, align 8
  %11 = alloca i64, align 8
  %12 = alloca ptr, align 8
  %13 = alloca i8, align 1
  %14 = alloca %"class.std::__cxx11::basic_string", align 8
  %15 = alloca %"class.std::__cxx11::basic_string", align 8
  %16 = alloca i64, align 8
  store ptr %1, ptr %8, align 8
  store i64 %2, ptr %9, align 8
  store ptr %3, ptr %10, align 8
  store i64 %4, ptr %11, align 8
  store ptr %5, ptr %12, align 8
  %17 = zext i1 %6 to i8
  store i8 %17, ptr %13, align 1
  %18 = getelementptr inbounds i8, ptr %0, i64 184
  %19 = getelementptr inbounds i8, ptr %0, i64 192
  %20 = load ptr, ptr %19, align 8
  %21 = load ptr, ptr %18, align 8
  %22 = ptrtoint ptr %20 to i64
  %23 = ptrtoint ptr %21 to i64
  %24 = sub i64 %22, %23
  %25 = ashr exact i64 %24, 2
  %26 = getelementptr inbounds i8, ptr %0, i64 24
  %27 = load i64, ptr %26, align 8
  %28 = getelementptr inbounds i8, ptr %0, i64 48
  %29 = load i64, ptr %28, align 8
  %30 = mul i64 %29, %27
  %31 = mul i64 %30, %29
  %32 = icmp eq i64 %25, %31
  br i1 %32, label %48, label %33

33:                                               ; preds = %7
  call void @_ZNSt7__cxx1112basic_stringIcSt11char_traitsIcESaIcEEC1Ev(ptr noundef nonnull align 8 dereferenceable(32) %14) #16
  %34 = call i32 (ptr, i64, ptr, ...) @snprintf(ptr noundef null, i64 noundef 0, ptr noundef nonnull @.str.8, ptr noundef nonnull @.str.15) #16
  %35 = add nsw i32 %34, 1
  %36 = sext i32 %35 to i64
  invoke void @_ZNSt7__cxx1112basic_stringIcSt11char_traitsIcESaIcEE6resizeEm(ptr noundef nonnull align 8 dereferenceable(32) %14, i64 noundef %36)
          to label %37 unwind label %44

37:                                               ; preds = %33
  %38 = invoke noundef nonnull align 1 dereferenceable(1) ptr @_ZNSt7__cxx1112basic_stringIcSt11char_traitsIcESaIcEEixEm(ptr noundef nonnull align 8 dereferenceable(32) %14, i64 noundef 0)
          to label %39 unwind label %44

39:                                               ; preds = %37
  %40 = call noundef i64 @_ZNKSt7__cxx1112basic_stringIcSt11char_traitsIcESaIcEE4sizeEv(ptr noundef nonnull align 8 dereferenceable(32) %14) #16
  %41 = call i32 (ptr, i64, ptr, ...) @snprintf(ptr noundef nonnull %38, i64 noundef %40, ptr noundef nonnull @.str.8, ptr noundef nonnull @.str.15) #16
  %42 = call ptr @__cxa_allocate_exception(i64 40) #16
  invoke void @_ZN5faiss14FaissExceptionC1ERKNSt7__cxx1112basic_stringIcSt11char_traitsIcESaIcEEEPKcSA_i(ptr noundef nonnull align 8 dereferenceable(40) %42, ptr noundef nonnull align 8 dereferenceable(32) %14, ptr noundef nonnull @__PRETTY_FUNCTION__._ZNK5faiss16ProductQuantizer10search_sdcEPKhmS2_mPNS_9HeapArrayINS_4CMaxIflEEEEb, ptr noundef nonnull @.str.2, i32 noundef 818)
          to label %43 unwind label %46

43:                                               ; preds = %39
  invoke void @__cxa_throw(ptr nonnull %42, ptr nonnull @_ZTIN5faiss14FaissExceptionE, ptr nonnull @_ZN5faiss14FaissExceptionD2Ev) #25
          to label %71 unwind label %44

44:                                               ; preds = %43, %37, %33
  %45 = landingpad { ptr, i32 }
          cleanup
  br label %70

46:                                               ; preds = %39
  %47 = landingpad { ptr, i32 }
          cleanup
  call void @__cxa_free_exception(ptr %42) #16
  br label %70

48:                                               ; preds = %7
  %49 = getelementptr inbounds i8, ptr %0, i64 32
  %50 = load i64, ptr %49, align 8
  %51 = icmp eq i64 %50, 8
  br i1 %51, label %67, label %52

52:                                               ; preds = %48
  call void @_ZNSt7__cxx1112basic_stringIcSt11char_traitsIcESaIcEEC1Ev(ptr noundef nonnull align 8 dereferenceable(32) %15) #16
  %53 = call i32 (ptr, i64, ptr, ...) @snprintf(ptr noundef null, i64 noundef 0, ptr noundef nonnull @.str.8, ptr noundef nonnull @.str.16) #16
  %54 = add nsw i32 %53, 1
  %55 = sext i32 %54 to i64
  invoke void @_ZNSt7__cxx1112basic_stringIcSt11char_traitsIcESaIcEE6resizeEm(ptr noundef nonnull align 8 dereferenceable(32) %15, i64 noundef %55)
          to label %56 unwind label %63

56:                                               ; preds = %52
  %57 = invoke noundef nonnull align 1 dereferenceable(1) ptr @_ZNSt7__cxx1112basic_stringIcSt11char_traitsIcESaIcEEixEm(ptr noundef nonnull align 8 dereferenceable(32) %15, i64 noundef 0)
          to label %58 unwind label %63

58:                                               ; preds = %56
  %59 = call noundef i64 @_ZNKSt7__cxx1112basic_stringIcSt11char_traitsIcESaIcEE4sizeEv(ptr noundef nonnull align 8 dereferenceable(32) %15) #16
  %60 = call i32 (ptr, i64, ptr, ...) @snprintf(ptr noundef nonnull %57, i64 noundef %59, ptr noundef nonnull @.str.8, ptr noundef nonnull @.str.16) #16
  %61 = call ptr @__cxa_allocate_exception(i64 40) #16
  invoke void @_ZN5faiss14FaissExceptionC1ERKNSt7__cxx1112basic_stringIcSt11char_traitsIcESaIcEEEPKcSA_i(ptr noundef nonnull align 8 dereferenceable(40) %61, ptr noundef nonnull align 8 dereferenceable(32) %15, ptr noundef nonnull @__PRETTY_FUNCTION__._ZNK5faiss16ProductQuantizer10search_sdcEPKhmS2_mPNS_9HeapArrayINS_4CMaxIflEEEEb, ptr noundef nonnull @.str.2, i32 noundef 819)
          to label %62 unwind label %65

62:                                               ; preds = %58
  invoke void @__cxa_throw(ptr nonnull %61, ptr nonnull @_ZTIN5faiss14FaissExceptionE, ptr nonnull @_ZN5faiss14FaissExceptionD2Ev) #25
          to label %71 unwind label %63

63:                                               ; preds = %62, %56, %52
  %64 = landingpad { ptr, i32 }
          cleanup
  br label %70

65:                                               ; preds = %58
  %66 = landingpad { ptr, i32 }
          cleanup
  call void @__cxa_free_exception(ptr %61) #16
  br label %70

67:                                               ; preds = %48
  %68 = getelementptr inbounds i8, ptr %5, i64 8
  %69 = load i64, ptr %68, align 8
  store i64 %69, ptr %16, align 8
  call void (ptr, i32, ptr, ...) @__kmpc_fork_call(ptr nonnull @2, i32 8, ptr nonnull @_ZNK5faiss16ProductQuantizer10search_sdcEPKhmS2_mPNS_9HeapArrayINS_4CMaxIflEEEEb.omp_outlined, ptr nonnull %9, ptr nonnull %12, ptr nonnull %16, ptr nonnull %8, ptr nonnull %0, ptr nonnull %13, ptr nonnull %10, ptr nonnull %11)
  ret void

70:                                               ; preds = %63, %65, %44, %46
  %.sink = phi ptr [ %14, %46 ], [ %14, %44 ], [ %15, %65 ], [ %15, %63 ]
  %.pn8.pn = phi { ptr, i32 } [ %47, %46 ], [ %45, %44 ], [ %66, %65 ], [ %64, %63 ]
  call void @_ZNSt7__cxx1112basic_stringIcSt11char_traitsIcESaIcEED1Ev(ptr noundef nonnull align 8 dereferenceable(32) %.sink) #16
  resume { ptr, i32 } %.pn8.pn

71:                                               ; preds = %62, %43
  unreachable
}